; Function Attrs: mustprogress nounwind willreturn uwtable
define void @_ZN4cvc58internal19LastExceptionBufferD2Ev(ptr nocapture noundef nonnull align 8 dereferenceable(8) %this) unnamed_addr #4 align 2 {
entry:
  %0 = load ptr, ptr %this, align 8
  %cmp.not = icmp eq ptr %0, null
  br i1 %cmp.not, label %if.end, label %if.then

if.then:                                          ; preds = %entry
  tail call void @free(ptr noundef nonnull %0) #16
  store ptr null, ptr %this, align 8
  br label %if.end

if.end:                                           ; preds = %if.then, %entry
  ret void
}